target datalayout = "e-m:e-p270:32:32-p271:32:32-p272:64:64-i64:64-i128:128-f80:128-n8:16:32:64-S128"
target triple = "x86_64-pc-linux-gnu"

%"class.cv::utils::trace::details::Region" = type <{ ptr, i32, [4 x i8] }>
%"class.std::__cxx11::basic_string" = type { %"struct.std::__cxx11::basic_string<char>::_Alloc_hider", i64, %union.anon }
%"struct.std::__cxx11::basic_string<char>::_Alloc_hider" = type { ptr }
%union.anon = type { i64, [8 x i8] }
%"class.std::allocator" = type { i8 }

@.str.1 = private unnamed_addr constant [130 x i8] c"generated/home/dtcxzyw/WorkSpace/Projects/compilers/llvm-opt-benchmark/bench/opencv/opencv/modules/imgproc/src/color_yuv.simd.hpp\00", align 1
@.str.4 = private unnamed_addr constant [42 x i8] c"Unknown/unsupported color conversion code\00", align 1
@__func__._ZN2cv3hal12cpu_baseline19cvtTwoPlaneYUVtoBGREPKhmS3_mPhmiiibi = private unnamed_addr constant [20 x i8] c"cvtTwoPlaneYUVtoBGR\00", align 1

; Function Attrs: mustprogress uwtable
define hidden void @_ZN2cv3hal12cpu_baseline19cvtTwoPlaneYUVtoBGREPKhmS3_mPhmiiibi(ptr noundef %0, i64 noundef %1, ptr noundef %2, i64 noundef %3, ptr noundef %4, i64 noundef %5, i32 noundef %6, i32 noundef %7, i32 noundef %8, i1 noundef zeroext %9, i32 noundef %10) #0 personality ptr @__gxx_personality_v0 {
  %12 = alloca ptr, align 8
  %13 = alloca i64, align 8
  %14 = alloca ptr, align 8
  %15 = alloca i64, align 8
  %16 = alloca ptr, align 8
  %17 = alloca i64, align 8
  %18 = alloca i32, align 4
  %19 = alloca i32, align 4
  %20 = alloca i32, align 4
  %21 = alloca i8, align 1
  %22 = alloca i32, align 4
  %23 = alloca %"class.cv::utils::trace::details::Region", align 8
  %24 = alloca i32, align 4
  %25 = alloca ptr, align 8
  %26 = alloca %"class.std::__cxx11::basic_string", align 8
  %27 = alloca %"class.std::allocator", align 1
  %28 = alloca ptr, align 8
  %29 = alloca i32, align 4
  store ptr %0, ptr %12, align 8
  store i64 %1, ptr %13, align 8
  store ptr %2, ptr %14, align 8
  store i64 %3, ptr %15, align 8
  store ptr %4, ptr %16, align 8
  store i64 %5, ptr %17, align 8
  store i32 %6, ptr %18, align 4
  store i32 %7, ptr %19, align 4
  store i32 %8, ptr %20, align 4
  %30 = zext i1 %9 to i8
  store i8 %30, ptr %21, align 1
  store i32 %10, ptr %22, align 4
  call void @_ZN2cv5utils5trace7details6RegionC1ERKNS3_21LocationStaticStorageE(ptr noundef nonnull align 8 dereferenceable(12) %23, ptr noundef nonnull align 8 dereferenceable(32) @_ZZN2cv3hal12cpu_baseline19cvtTwoPlaneYUVtoBGREPKhmS3_mPhmiiibiE26__cv_trace_location_fn2025)
  %31 = load i8, ptr %21, align 1
  %32 = trunc i8 %31 to i1
  %33 = select i1 %32, i32 2, i32 0
  store i32 %33, ptr %24, align 4
  %34 = load i32, ptr %20, align 4
  %35 = mul nsw i32 %34, 100
  %36 = load i32, ptr %24, align 4
  %37 = mul nsw i32 %36, 10
  %38 = add nsw i32 %35, %37
  %39 = load i32, ptr %22, align 4
  %40 = add nsw i32 %38, %39
  switch i32 %40, label %49 [
    i32 300, label %41
    i32 301, label %42
    i32 320, label %43
    i32 321, label %44
    i32 400, label %45
    i32 401, label %46
    i32 420, label %47
    i32 421, label %48
  ]

41:                                               ; preds = %11
  store ptr @_ZN2cv3hal12cpu_baseline12_GLOBAL__N_115cvtYUV420sp2RGBILi0ELi0ELi3EEEvPhmiiPKhmS6_m, ptr %25, align 8
  br label %61

42:                                               ; preds = %11
  store ptr @_ZN2cv3hal12cpu_baseline12_GLOBAL__N_115cvtYUV420sp2RGBILi0ELi1ELi3EEEvPhmiiPKhmS6_m, ptr %25, align 8
  br label %61

43:                                               ; preds = %11
  store ptr @_ZN2cv3hal12cpu_baseline12_GLOBAL__N_115cvtYUV420sp2RGBILi2ELi0ELi3EEEvPhmiiPKhmS6_m, ptr %25, align 8
  br label %61

44:                                               ; preds = %11
  store ptr @_ZN2cv3hal12cpu_baseline12_GLOBAL__N_115cvtYUV420sp2RGBILi2ELi1ELi3EEEvPhmiiPKhmS6_m, ptr %25, align 8
  br label %61

45:                                               ; preds = %11
  store ptr @_ZN2cv3hal12cpu_baseline12_GLOBAL__N_115cvtYUV420sp2RGBILi0ELi0ELi4EEEvPhmiiPKhmS6_m, ptr %25, align 8
  br label %61

46:                                               ; preds = %11
  store ptr @_ZN2cv3hal12cpu_baseline12_GLOBAL__N_115cvtYUV420sp2RGBILi0ELi1ELi4EEEvPhmiiPKhmS6_m, ptr %25, align 8
  br label %61

47:                                               ; preds = %11
  store ptr @_ZN2cv3hal12cpu_baseline12_GLOBAL__N_115cvtYUV420sp2RGBILi2ELi0ELi4EEEvPhmiiPKhmS6_m, ptr %25, align 8
  br label %61

48:                                               ; preds = %11
  store ptr @_ZN2cv3hal12cpu_baseline12_GLOBAL__N_115cvtYUV420sp2RGBILi2ELi1ELi4EEEvPhmiiPKhmS6_m, ptr %25, align 8
  br label %61

49:                                               ; preds = %11
  call void @_ZNSaIcEC1Ev(ptr noundef nonnull align 1 dereferenceable(1) %27) #10
  invoke void @_ZNSt7__cxx1112basic_stringIcSt11char_traitsIcESaIcEEC1EPKcRKS3_(ptr noundef nonnull align 8 dereferenceable(32) %26, ptr noundef @.str.4, ptr noundef nonnull align 1 dereferenceable(1) %27)
          to label %50 unwind label %52

50:                                               ; preds = %49
  invoke void @_ZN2cv5errorEiRKNSt7__cxx1112basic_stringIcSt11char_traitsIcESaIcEEEPKcS9_i(i32 noundef -206, ptr noundef nonnull align 8 dereferenceable(32) %26, ptr noundef @__func__._ZN2cv3hal12cpu_baseline19cvtTwoPlaneYUVtoBGREPKhmS3_mPhmiiibi, ptr noundef @.str.1, i32 noundef 2040) #12
          to label %51 unwind label %56

51:                                               ; preds = %50
  unreachable

52:                                               ; preds = %49
  %53 = landingpad { ptr, i32 }
          cleanup
  %54 = extractvalue { ptr, i32 } %53, 0
  store ptr %54, ptr %28, align 8
  %55 = extractvalue { ptr, i32 } %53, 1
  store i32 %55, ptr %29, align 4
  br label %60

56:                                               ; preds = %50
  %57 = landingpad { ptr, i32 }
          cleanup
  %58 = extractvalue { ptr, i32 } %57, 0
  store ptr %58, ptr %28, align 8
  %59 = extractvalue { ptr, i32 } %57, 1
  store i32 %59, ptr %29, align 4
  call void @_ZNSt7__cxx1112basic_stringIcSt11char_traitsIcESaIcEED1Ev(ptr noundef nonnull align 8 dereferenceable(32) %26) #10
  br label %60

60:                                               ; preds = %56, %52
  call void @_ZNSaIcED1Ev(ptr noundef nonnull align 1 dereferenceable(1) %27) #10
  br label %76

61:                                               ; preds = %48, %47, %46, %45, %44, %43, %42, %41
  %62 = load ptr, ptr %25, align 8
  %63 = load ptr, ptr %16, align 8
  %64 = load i64, ptr %17, align 8
  %65 = load i32, ptr %18, align 4
  %66 = load i32, ptr %19, align 4
  %67 = load ptr, ptr %12, align 8
  %68 = load i64, ptr %13, align 8
  %69 = load ptr, ptr %14, align 8
  %70 = load i64, ptr %15, align 8
  invoke void %62(ptr noundef %63, i64 noundef %64, i32 noundef %65, i32 noundef %66, ptr noundef %67, i64 noundef %68, ptr noundef %69, i64 noundef %70)
          to label %71 unwind label %72

71:                                               ; preds = %61
  call void @_ZN2cv5utils5trace7details6RegionD2Ev(ptr noundef nonnull align 8 dereferenceable(12) %23) #10
  ret void

72:                                               ; preds = %61
  %73 = landingpad { ptr, i32 }
          cleanup
  %74 = extractvalue { ptr, i32 } %73, 0
  store ptr %74, ptr %28, align 8
  %75 = extractvalue { ptr, i32 } %73, 1
  store i32 %75, ptr %29, align 4
  br label %76

76:                                               ; preds = %72, %60
  call void @_ZN2cv5utils5trace7details6RegionD2Ev(ptr noundef nonnull align 8 dereferenceable(12) %23) #10
  br label %77

77:                                               ; preds = %76
  %78 = load ptr, ptr %28, align 8
  %79 = load i32, ptr %29, align 4
  %80 = insertvalue { ptr, i32 } poison, ptr %78, 0
  %81 = insertvalue { ptr, i32 } %80, i32 %79, 1
  resume { ptr, i32 } %81
}