; Function Attrs: mustprogress uwtable
define hidden void @_ZN2cv3hal12cpu_baseline19cvtTwoPlaneYUVtoBGREPKhmS3_mPhmiiibi(ptr noundef %0, i64 noundef %1, ptr noundef %2, i64 noundef %3, ptr noundef %4, i64 noundef %5, i32 noundef %6, i32 noundef %7, i32 noundef %8, i1 noundef zeroext %9, i32 noundef %10) local_unnamed_addr #0 personality ptr @__gxx_personality_v0 {
  %12 = alloca %"class.cv::utils::trace::details::Region", align 8
  %13 = alloca %"class.std::__cxx11::basic_string", align 8
  %14 = alloca %"class.std::allocator", align 1
  call void @_ZN2cv5utils5trace7details6RegionC1ERKNS3_21LocationStaticStorageE(ptr noundef nonnull align 8 dereferenceable(12) %12, ptr noundef nonnull align 8 dereferenceable(32) @_ZZN2cv3hal12cpu_baseline19cvtTwoPlaneYUVtoBGREPKhmS3_mPhmiiibiE26__cv_trace_location_fn2025)
  %15 = mul nsw i32 %8, 100
  %16 = select i1 %9, i32 20, i32 0
  %17 = add nsw i32 %16, %15
  %18 = add nsw i32 %17, %10
  switch i32 %18, label %26 [
    i32 300, label %34
    i32 301, label %19
    i32 320, label %20
    i32 321, label %21
    i32 400, label %22
    i32 401, label %23
    i32 420, label %24
    i32 421, label %25
  ]

19:                                               ; preds = %11
  br label %34

20:                                               ; preds = %11
  br label %34

21:                                               ; preds = %11
  br label %34

22:                                               ; preds = %11
  br label %34

23:                                               ; preds = %11
  br label %34

24:                                               ; preds = %11
  br label %34

25:                                               ; preds = %11
  br label %34

26:                                               ; preds = %11
  call void @_ZNSaIcEC1Ev(ptr noundef nonnull align 1 dereferenceable(1) %14) #12
  invoke void @_ZNSt7__cxx1112basic_stringIcSt11char_traitsIcESaIcEEC1EPKcRKS3_(ptr noundef nonnull align 8 dereferenceable(32) %13, ptr noundef nonnull @.str.4, ptr noundef nonnull align 1 dereferenceable(1) %14)
          to label %27 unwind label %29

27:                                               ; preds = %26
  invoke void @_ZN2cv5errorEiRKNSt7__cxx1112basic_stringIcSt11char_traitsIcESaIcEEEPKcS9_i(i32 noundef -206, ptr noundef nonnull align 8 dereferenceable(32) %13, ptr noundef nonnull @__func__._ZN2cv3hal12cpu_baseline19cvtTwoPlaneYUVtoBGREPKhmS3_mPhmiiibi, ptr noundef nonnull @.str.1, i32 noundef 2040) #14
          to label %28 unwind label %31

28:                                               ; preds = %27
  unreachable

29:                                               ; preds = %26
  %30 = landingpad { ptr, i32 }
          cleanup
  br label %33

31:                                               ; preds = %27
  %32 = landingpad { ptr, i32 }
          cleanup
  call void @_ZNSt7__cxx1112basic_stringIcSt11char_traitsIcESaIcEED1Ev(ptr noundef nonnull align 8 dereferenceable(32) %13) #12
  br label %33

33:                                               ; preds = %31, %29
  %.pn = phi { ptr, i32 } [ %32, %31 ], [ %30, %29 ]
  call void @_ZNSaIcED1Ev(ptr noundef nonnull align 1 dereferenceable(1) %14) #12
  br label %44

34:                                               ; preds = %11, %25, %24, %23, %22, %21, %20, %19
  %.016 = phi ptr [ @_ZN2cv3hal12cpu_baseline12_GLOBAL__N_115cvtYUV420sp2RGBILi2ELi1ELi4EEEvPhmiiPKhmS6_m, %25 ], [ @_ZN2cv3hal12cpu_baseline12_GLOBAL__N_115cvtYUV420sp2RGBILi2ELi0ELi4EEEvPhmiiPKhmS6_m, %24 ], [ @_ZN2cv3hal12cpu_baseline12_GLOBAL__N_115cvtYUV420sp2RGBILi0ELi1ELi4EEEvPhmiiPKhmS6_m, %23 ], [ @_ZN2cv3hal12cpu_baseline12_GLOBAL__N_115cvtYUV420sp2RGBILi0ELi0ELi4EEEvPhmiiPKhmS6_m, %22 ], [ @_ZN2cv3hal12cpu_baseline12_GLOBAL__N_115cvtYUV420sp2RGBILi2ELi1ELi3EEEvPhmiiPKhmS6_m, %21 ], [ @_ZN2cv3hal12cpu_baseline12_GLOBAL__N_115cvtYUV420sp2RGBILi2ELi0ELi3EEEvPhmiiPKhmS6_m, %20 ], [ @_ZN2cv3hal12cpu_baseline12_GLOBAL__N_115cvtYUV420sp2RGBILi0ELi1ELi3EEEvPhmiiPKhmS6_m, %19 ], [ @_ZN2cv3hal12cpu_baseline12_GLOBAL__N_115cvtYUV420sp2RGBILi0ELi0ELi3EEEvPhmiiPKhmS6_m, %11 ]
  invoke void %.016(ptr noundef %4, i64 noundef %5, i32 noundef %6, i32 noundef %7, ptr noundef %0, i64 noundef %1, ptr noundef %2, i64 noundef %3)
          to label %35 unwind label %42

35:                                               ; preds = %34
  %36 = getelementptr inbounds i8, ptr %12, i64 8
  %37 = load i32, ptr %36, align 8
  %.not.i = icmp eq i32 %37, 0
  br i1 %.not.i, label %_ZN2cv5utils5trace7details6RegionD2Ev.exit, label %38

38:                                               ; preds = %35
  invoke void @_ZN2cv5utils5trace7details6Region7destroyEv(ptr noundef nonnull align 8 dereferenceable(12) %12)
          to label %_ZN2cv5utils5trace7details6RegionD2Ev.exit unwind label %39

39:                                               ; preds = %38
  %40 = landingpad { ptr, i32 }
          catch ptr null
  %41 = extractvalue { ptr, i32 } %40, 0
  call void @__clang_call_terminate(ptr %41) #13
  unreachable

_ZN2cv5utils5trace7details6RegionD2Ev.exit:       ; preds = %35, %38
  ret void

42:                                               ; preds = %34
  %43 = landingpad { ptr, i32 }
          cleanup
  br label %44

44:                                               ; preds = %42, %33
  %.pn.pn = phi { ptr, i32 } [ %.pn, %33 ], [ %43, %42 ]
  call void @_ZN2cv5utils5trace7details6RegionD2Ev(ptr noundef nonnull align 8 dereferenceable(12) %12) #12
  resume { ptr, i32 } %.pn.pn
}